Certificate:
    Data:
        Version: 3 (0x2)
        Serial Number: 1 (0x1)
        Signature Algorithm: sha1WithRSAEncryption
        Issuer: C=AM, O=ArmeSFo
        Validity
            Not Before: Jul  5 12:01:17 2009 GMT
            Not After : Jul  5 12:01:17 2010 GMT
        Subject: C=AM, O=dgsd, O=gsdg, OU=sgsd, CN=gasdg
        Subject Public Key Info:
            Public Key Algorithm: rsaEncryption
            RSA Public Key: (2048 bit)
                Modulus (2048 bit):
                    00:bf:58:00:fa:20:c9:f8:fc:cf:9d:33:b2:47:00:
                    ac:22:0a:9a:62:21:5a:0d:1c:17:45:ac:ee:14:4b:
                    8c:dc:40:52:81:e8:21:bb:92:a3:41:17:4b:59:68:
                    00:f9:6f:c6:2d:3e:26:f7:07:04:bf:8a:20:d9:d8:
                    0e:4d:99:3f:da:b3:91:5e:64:08:5e:bb:4a:5d:2b:
                    4d:f4:5a:e8:56:3e:a1:72:57:6c:b2:5a:1f:0c:46:
                    f6:ee:5e:f4:56:00:68:5e:1c:d4:a5:55:f9:82:e3:
                    2a:e5:4c:9a:01:c3:42:a2:ae:dd:79:d7:d1:31:a9:
                    55:b4:7f:4b:da:6a:ae:97:07:39:f6:e3:96:e9:ad:
                    b7:36:99:22:1d:46:40:a5:9b:86:ea:8c:31:46:56:
                    28:e1:14:18:c3:9e:ed:a0:a9:51:6f:f3:11:92:d1:
                    17:7e:30:9e:c8:9b:9b:c7:89:11:05:ad:02:7e:2c:
                    29:44:00:19:60:53:fb:cc:1a:01:51:4c:aa:45:da:
                    66:aa:31:29:8a:ee:d8:b8:b4:80:0f:a8:ea:d6:dc:
                    86:f7:90:bd:63:aa:36:fe:17:e3:ae:a7:c2:38:df:
                    b6:ae:2a:6b:57:e4:ca:0a:20:02:8c:e2:15:49:30:
                    e9:96:b6:68:b3:97:fc:f0:37:7a:a0:ee:1a:4a:05:
                    11:f1
                Exponent: 65537 (0x10001)
        X509v3 extensions:
            X509v3 Basic Constraints: critical
                CA:FALSE
            X509v3 Key Usage: critical
                Digital Signature, Key Encipherment, Data Encipherment
            X509v3 Extended Key Usage: 
                TLS Web Client Authentication, E-mail Protection
            X509v3 Certificate Policies: 
                Policy: ARMESFOCACPCPSOID

            X509v3 CRL Distribution Points: 
                URI:http://armesfoca-crl.fzk.de/crl.pem

    Signature Algorithm: sha1WithRSAEncryption
        1c:27:b7:64:37:85:b9:48:7e:fd:26:c2:b5:36:f7:84:c5:f4:
        54:c3:0f:24:e3:4f:ac:c3:8c:45:e9:75:09:33:63:c4:6e:83:
        77:3c:ae:7c:c3:fa:5a:ff:34:08:9d:ab:a2:74:1e:89:5f:68:
        f2:7c:cb:55:00:5a:5e:94:f7:69:6e:59:45:83:17:97:5c:f4:
        8d:be:56:dd:ed:36:b2:a2:53:d5:a2:31:12:df:b8:9d:2e:92:
        9c:13:18:0f:38:08:d9:dc:48:fe:fd:70:2f:4a:31:d0:e7:64:
        c1:fc:10:88:00:2a:a8:e2:a1:b6:13:e3:49:c9:23:d0:84:61:
        77:f8
-----BEGIN CERTIFICATE-----
MIIC9TCCAl6gAwIBAgIBATANBgkqhkiG9w0BAQUFADAfMQswCQYDVQQGEwJBTTEQ
MA4GA1UEChMHQXJtZVNGbzAeFw0wOTA3MDUxMjAxMTdaFw0xMDA3MDUxMjAxMTda
MEoxCzAJBgNVBAYTAkFNMQ0wCwYDVQQKEwRkZ3NkMQ0wCwYDVQQKEwRnc2RnMQ0w
CwYDVQQLEwRzZ3NkMQ4wDAYDVQQDEwVnYXNkZzCCASIwDQYJKoZIhvcNAQEBBQAD
ggEPADCCAQoCggEBAL9YAPogyfj8z50zskcArCIKmmIhWg0cF0Ws7hRLjNxAUoHo
IbuSo0EXS1loAPlvxi0+JvcHBL+KINnYDk2ZP9qzkV5kCF67Sl0rTfRa6FY+oXJX
bLJaHwxG9u5e9FYAaF4c1KVV+YLjKuVMmgHDQqKu3XnX0TGpVbR/S9pqrpcHOfbj
lumttzaZIh1GQKWbhuqMMUZWKOEUGMOe7aCpUW/zEZLRF34wnsibm8eJEQWtAn4s
KUQAGWBT+8waAVFMqkXaZqoxKYru2Li0gA+o6tbchveQvWOqNv4X466nwjjftq4q
a1fkygogAoziFUkw6Za2aLOX/PA3eqDuGkoFEfECAwEAAaOBkTCBjjAMBgNVHRMB
Af8EAjAAMA4GA1UdDwEB/wQEAwIEsDAdBgNVHSUEFjAUBggrBgEFBQcDAgYIKwYB
BQUHAwQwGQYDVR0gBBIwEDAOBgwrBgEEAYGHGggBAAYwNAYDVR0fBC0wKzApoCeg
JYYjaHR0cDovL2FybWVzZm9jYS1jcmwuZnprLmRlL2NybC5wZW0wDQYJKoZIhvcN
AQEFBQADgYEAHCe3ZDeFuUh+/SbCtTb3hMX0VMMPJONPrMOMRel1CTNjxG6Ddzyu
fMP6Wv80CJ2ronQeiV9o8nzLVQBaXpT3aW5ZRYMXl1z0jb5W3e02sqJT1aIxEt+4
nS6SnBMYDzgI2dxI/v1wL0ox0OdkwfwQiAAqqOKhthPjSckj0IRhd/g=
-----END CERTIFICATE-----
