Certificate:
    Data:
        Version: 3 (0x2)
        Serial Number: 0 (0x0)
        Signature Algorithm: sha1WithRSAEncryption
        Issuer: C=AM, O=ArmeSFo
        Validity
            Not Before: Jul  5 11:56:57 2009 GMT
            Not After : Jul  5 11:56:57 2010 GMT
        Subject: C=AM, O=sdg, O=gsdgsd, OU=sd, CN=sgdg
        Subject Public Key Info:
            Public Key Algorithm: rsaEncryption
            RSA Public Key: (2048 bit)
                Modulus (2048 bit):
                    00:ad:95:87:d6:61:d3:7e:d9:d2:18:7e:e4:e1:df:
                    96:ec:16:3b:9c:2e:e4:5c:87:96:d8:70:08:e3:52:
                    08:fd:d9:f8:45:68:27:39:64:6c:9d:65:a8:14:ea:
                    3d:14:66:db:a6:90:53:d9:76:ce:4a:5b:8d:cb:b3:
                    84:25:13:cd:43:9f:75:aa:cf:20:41:f6:49:93:e9:
                    fa:3b:a7:eb:59:31:00:c3:8b:9c:43:d1:15:e0:47:
                    54:76:12:1d:a7:7f:cb:9e:94:fc:b6:d2:39:14:62:
                    c4:49:df:08:f5:67:07:94:50:21:7a:7e:51:a3:d8:
                    9e:be:f9:80:6c:a3:1d:1a:7f:df:1c:bb:06:a1:e4:
                    dd:71:98:95:29:ac:53:0f:0b:17:e1:9a:b2:17:c2:
                    d5:fa:06:41:a8:13:b7:48:60:67:60:d1:1e:65:f2:
                    eb:32:fb:b8:40:1d:90:a2:6f:e2:aa:d7:9b:34:80:
                    61:d7:ec:e8:55:fa:6a:85:67:0a:b6:c8:63:1f:88:
                    a0:24:91:90:63:9f:9c:69:13:2a:9b:9f:de:f9:2b:
                    42:41:eb:2d:3f:20:23:97:64:1a:24:5a:0e:9a:55:
                    e6:dc:10:4d:93:fb:e2:6a:8b:00:84:5c:58:12:33:
                    dd:72:08:fa:7b:d0:cc:9f:d3:3f:64:66:26:f5:4f:
                    ea:ab
                Exponent: 65537 (0x10001)
        X509v3 extensions:
            X509v3 Basic Constraints: critical
                CA:FALSE
            X509v3 Key Usage: critical
                Digital Signature, Key Encipherment, Data Encipherment
            X509v3 Extended Key Usage: 
                TLS Web Client Authentication, E-mail Protection
            X509v3 Certificate Policies: 
                Policy: ARMESFOCACPCPSOID

            X509v3 CRL Distribution Points: 
                URI:http://armesfoca-crl.fzk.de/crl.pem

    Signature Algorithm: sha1WithRSAEncryption
        7d:36:a1:4c:0e:8a:7c:05:d4:fc:4b:1b:c3:3a:20:35:4f:83:
        02:8f:c8:de:98:ed:16:44:5a:a8:fd:04:d6:96:9b:18:6e:dd:
        c1:e8:c4:cc:12:86:cc:f1:ee:ea:9d:14:da:40:4d:93:fb:3c:
        df:ec:41:3c:cc:56:5a:38:10:46:e3:a7:4a:3a:12:e1:b2:f1:
        2d:7a:5d:bf:25:d3:6c:e0:7f:aa:80:81:42:86:2f:32:8b:9b:
        89:e1:aa:34:e8:c2:83:a5:73:31:1b:07:75:47:9f:e0:d0:1d:
        10:95:2f:fb:42:22:7a:2c:ef:2f:9c:32:a6:c0:1e:36:14:a7:
        85:95
-----BEGIN CERTIFICATE-----
MIIC8zCCAlygAwIBAgIBADANBgkqhkiG9w0BAQUFADAfMQswCQYDVQQGEwJBTTEQ
MA4GA1UEChMHQXJtZVNGbzAeFw0wOTA3MDUxMTU2NTdaFw0xMDA3MDUxMTU2NTda
MEgxCzAJBgNVBAYTAkFNMQwwCgYDVQQKEwNzZGcxDzANBgNVBAoTBmdzZGdzZDEL
MAkGA1UECxMCc2QxDTALBgNVBAMTBHNnZGcwggEiMA0GCSqGSIb3DQEBAQUAA4IB
DwAwggEKAoIBAQCtlYfWYdN+2dIYfuTh35bsFjucLuRch5bYcAjjUgj92fhFaCc5
ZGydZagU6j0UZtumkFPZds5KW43Ls4QlE81Dn3WqzyBB9kmT6fo7p+tZMQDDi5xD
0RXgR1R2Eh2nf8uelPy20jkUYsRJ3wj1ZweUUCF6flGj2J6++YBsox0af98cuwah
5N1xmJUprFMPCxfhmrIXwtX6BkGoE7dIYGdg0R5l8usy+7hAHZCib+Kq15s0gGHX
7OhV+mqFZwq2yGMfiKAkkZBjn5xpEyqbn975K0JB6y0/ICOXZBokWg6aVebcEE2T
++JqiwCEXFgSM91yCPp70Myf0z9kZib1T+qrAgMBAAGjgZEwgY4wDAYDVR0TAQH/
BAIwADAOBgNVHQ8BAf8EBAMCBLAwHQYDVR0lBBYwFAYIKwYBBQUHAwIGCCsGAQUF
BwMEMBkGA1UdIAQSMBAwDgYMKwYBBAGBhxoIAQAGMDQGA1UdHwQtMCswKaAnoCWG
I2h0dHA6Ly9hcm1lc2ZvY2EtY3JsLmZ6ay5kZS9jcmwucGVtMA0GCSqGSIb3DQEB
BQUAA4GBAH02oUwOinwF1PxLG8M6IDVPgwKPyN6Y7RZEWqj9BNaWmxhu3cHoxMwS
hszx7uqdFNpATZP7PN/sQTzMVlo4EEbjp0o6EuGy8S16Xb8l02zgf6qAgUKGLzKL
m4nhqjTowoOlczEbB3VHn+DQHRCVL/tCInos7y+cMqbAHjYUp4WV
-----END CERTIFICATE-----
