Certificate:
    Data:
        Version: 3 (0x2)
        Serial Number: 2 (0x2)
        Signature Algorithm: sha1WithRSAEncryption
        Issuer: C=AM, O=ArmeSFo
        Validity
            Not Before: Jul  5 12:04:42 2009 GMT
            Not After : Jul  5 12:04:42 2010 GMT
        Subject: C=AM, OU=w, CN=w
        Subject Public Key Info:
            Public Key Algorithm: rsaEncryption
            RSA Public Key: (1024 bit)
                Modulus (1024 bit):
                    00:b2:b9:87:99:d8:4e:f8:20:f2:b2:c0:e5:ae:f5:
                    67:78:ad:c7:76:46:09:0b:2a:0c:e7:f5:f6:20:5c:
                    64:0b:54:15:46:fe:92:7e:c7:11:45:3a:d0:00:60:
                    d8:7e:43:0a:9f:41:52:10:86:36:a4:c5:6a:f5:d4:
                    33:b2:5d:c3:f3:9a:26:d5:41:62:fc:af:52:10:ed:
                    14:ba:ef:11:97:7a:31:b4:bf:18:22:f9:29:dd:b1:
                    80:aa:20:f7:83:71:82:0c:cd:1e:b8:f8:f5:b1:be:
                    a4:fc:77:90:49:d9:d8:36:c3:3e:1f:6e:06:38:95:
                    d2:96:84:9b:4c:13:0a:e3:25
                Exponent: 65537 (0x10001)
        X509v3 extensions:
            X509v3 Basic Constraints: critical
                CA:FALSE
            X509v3 Key Usage: critical
                Digital Signature, Key Encipherment, Data Encipherment
            X509v3 Extended Key Usage: 
                TLS Web Client Authentication, E-mail Protection
            X509v3 Certificate Policies: 
                Policy: ARMESFOCACPCPSOID

            X509v3 CRL Distribution Points: 
                URI:http://armesfoca-crl.fzk.de/crl.pem

    Signature Algorithm: sha1WithRSAEncryption
        af:22:7e:67:96:80:a4:51:c1:35:91:0f:af:4f:8d:1a:00:04:
        3a:30:1f:d2:b8:7d:de:96:ed:05:12:ca:ca:4e:58:3b:62:f4:
        62:f3:de:f6:dd:97:40:5e:54:82:b8:34:26:44:53:7c:24:63:
        a9:b9:cf:aa:58:c2:f1:70:6a:f3:d4:8d:b0:c4:69:48:a5:ed:
        a2:98:3b:d8:3e:b8:d4:3a:c0:a0:8f:c2:cd:57:a8:7c:d0:b9:
        05:9b:21:0d:c3:d0:84:56:4b:4d:41:59:eb:c2:df:46:18:8d:
        e6:83:cb:d0:bc:3e:1d:5f:72:21:29:2e:e4:94:2e:ef:45:0a:
        db:1d
-----BEGIN CERTIFICATE-----
MIICTDCCAbWgAwIBAgIBAjANBgkqhkiG9w0BAQUFADAfMQswCQYDVQQGEwJBTTEQ
MA4GA1UEChMHQXJtZVNGbzAeFw0wOTA3MDUxMjA0NDJaFw0xMDA3MDUxMjA0NDJa
MCUxCzAJBgNVBAYTAkFNMQowCAYDVQQLEwF3MQowCAYDVQQDEwF3MIGfMA0GCSqG
SIb3DQEBAQUAA4GNADCBiQKBgQCyuYeZ2E74IPKywOWu9Wd4rcd2RgkLKgzn9fYg
XGQLVBVG/pJ+xxFFOtAAYNh+QwqfQVIQhjakxWr11DOyXcPzmibVQWL8r1IQ7RS6
7xGXejG0vxgi+SndsYCqIPeDcYIMzR64+PWxvqT8d5BJ2dg2wz4fbgY4ldKWhJtM
EwrjJQIDAQABo4GRMIGOMAwGA1UdEwEB/wQCMAAwDgYDVR0PAQH/BAQDAgSwMB0G
A1UdJQQWMBQGCCsGAQUFBwMCBggrBgEFBQcDBDAZBgNVHSAEEjAQMA4GDCsGAQQB
gYcaCAEABjA0BgNVHR8ELTArMCmgJ6AlhiNodHRwOi8vYXJtZXNmb2NhLWNybC5m
emsuZGUvY3JsLnBlbTANBgkqhkiG9w0BAQUFAAOBgQCvIn5nloCkUcE1kQ+vT40a
AAQ6MB/SuH3elu0FEsrKTlg7YvRi89723ZdAXlSCuDQmRFN8JGOpuc+qWMLxcGrz
1I2wxGlIpe2imDvYPrjUOsCgj8LNV6h80LkFmyENw9CEVktNQVnrwt9GGI3mg8vQ
vD4dX3IhKS7klC7vRQrbHQ==
-----END CERTIFICATE-----
